target datalayout = "e-m:e-p270:32:32-p271:32:32-p272:64:64-i64:64-i128:128-f80:128-n8:16:32:64-S128"
target triple = "x86_64-pc-linux-gnu"

%"struct.std::pair" = type { i32, i32 }

; Function Attrs: mustprogress nounwind uwtable
define linkonce_odr hidden noundef nonnull align 4 dereferenceable(8) ptr @_ZNSt4pairIjjEaSEOS0_(ptr noundef nonnull align 4 dereferenceable(8) %0, ptr noundef nonnull align 4 dereferenceable(8) %1) #0 comdat align 2 {
  %3 = alloca ptr, align 8
  %4 = alloca ptr, align 8
  store ptr %0, ptr %3, align 8
  store ptr %1, ptr %4, align 8
  %5 = load ptr, ptr %3, align 8
  %6 = load ptr, ptr %4, align 8
  %7 = getelementptr inbounds nuw %"struct.std::pair", ptr %6, i32 0, i32 0
  %8 = load i32, ptr %7, align 4
  %9 = getelementptr inbounds nuw %"struct.std::pair", ptr %5, i32 0, i32 0
  store i32 %8, ptr %9, align 4
  %10 = load ptr, ptr %4, align 8
  %11 = getelementptr inbounds nuw %"struct.std::pair", ptr %10, i32 0, i32 1
  %12 = load i32, ptr %11, align 4
  %13 = getelementptr inbounds nuw %"struct.std::pair", ptr %5, i32 0, i32 1
  store i32 %12, ptr %13, align 4
  ret ptr %5
}

; Function Attrs: mustprogress nounwind uwtable
define linkonce_odr hidden void @_ZNSt4pairIjjEC2IRjjTnNSt9enable_ifIXaaclsr5_PCCPE22_MoveConstructiblePairIT_T0_EEclsr5_PCCPE30_ImplicitlyMoveConvertiblePairIS4_S5_EEEbE4typeELb1EEEOS4_OS5_(ptr noundef nonnull align 4 dereferenceable(8) %0, ptr noundef nonnull align 4 dereferenceable(4) %1, ptr noundef nonnull align 4 dereferenceable(4) %2) unnamed_addr #0 comdat align 2 {
  %4 = alloca ptr, align 8
  %5 = alloca ptr, align 8
  %6 = alloca ptr, align 8
  store ptr %0, ptr %4, align 8
  store ptr %1, ptr %5, align 8
  store ptr %2, ptr %6, align 8
  %7 = load ptr, ptr %4, align 8
  %8 = getelementptr inbounds nuw %"struct.std::pair", ptr %7, i32 0, i32 0
  %9 = load ptr, ptr %5, align 8
  %10 = load i32, ptr %9, align 4
  store i32 %10, ptr %8, align 4
  %11 = getelementptr inbounds nuw %"struct.std::pair", ptr %7, i32 0, i32 1
  %12 = load ptr, ptr %6, align 8
  %13 = load i32, ptr %12, align 4
  store i32 %13, ptr %11, align 4
  ret void
}

; Function Attrs: mustprogress nounwind uwtable
define linkonce_odr hidden void @_ZNSt4pairIjjEC2IRjiTnNSt9enable_ifIXaaclsr5_PCCPE22_MoveConstructiblePairIT_T0_EEclsr5_PCCPE30_ImplicitlyMoveConvertiblePairIS4_S5_EEEbE4typeELb1EEEOS4_OS5_(ptr noundef nonnull align 4 dereferenceable(8) %0, ptr noundef nonnull align 4 dereferenceable(4) %1, ptr noundef nonnull align 4 dereferenceable(4) %2) unnamed_addr #0 comdat align 2 {
  %4 = alloca ptr, align 8
  %5 = alloca ptr, align 8
  %6 = alloca ptr, align 8
  store ptr %0, ptr %4, align 8
  store ptr %1, ptr %5, align 8
  store ptr %2, ptr %6, align 8
  %7 = load ptr, ptr %4, align 8
  %8 = getelementptr inbounds nuw %"struct.std::pair", ptr %7, i32 0, i32 0
  %9 = load ptr, ptr %5, align 8
  %10 = load i32, ptr %9, align 4
  store i32 %10, ptr %8, align 4
  %11 = getelementptr inbounds nuw %"struct.std::pair", ptr %7, i32 0, i32 1
  %12 = load ptr, ptr %6, align 8
  %13 = load i32, ptr %12, align 4
  store i32 %13, ptr %11, align 4
  ret void
}

; Function Attrs: mustprogress nounwind uwtable
define linkonce_odr hidden void @_ZNSt4pairIjjEC2IjjTnNSt9enable_ifIXsr6__and_ISt37__is_implicitly_default_constructibleIT_ES3_IT0_EEE5valueEbE4typeELb1EEEv(ptr noundef nonnull align 4 dereferenceable(8) %0) unnamed_addr #0 comdat align 2 {
  %2 = alloca ptr, align 8
  store ptr %0, ptr %2, align 8
  %3 = load ptr, ptr %2, align 8
  %4 = getelementptr inbounds nuw %"struct.std::pair", ptr %3, i32 0, i32 0
  store i32 0, ptr %4, align 4
  %5 = getelementptr inbounds nuw %"struct.std::pair", ptr %3, i32 0, i32 1
  store i32 0, ptr %5, align 4
  ret void
}

; Function Attrs: mustprogress nounwind uwtable
define dso_local i64 @_ZN4llvm15IntervalMapImpl10distributeEjjjPKjPjjb(i32 noundef %0, i32 noundef %1, i32 noundef %2, ptr noundef %3, ptr noundef %4, i32 noundef %5, i1 noundef zeroext %6) #0 {
  %8 = alloca %"struct.std::pair", align 4
  %9 = alloca i32, align 4
  %10 = alloca i32, align 4
  %11 = alloca i32, align 4
  %12 = alloca ptr, align 8
  %13 = alloca ptr, align 8
  %14 = alloca i32, align 4
  %15 = alloca i8, align 1
  %16 = alloca i32, align 4
  %17 = alloca i32, align 4
  %18 = alloca i32, align 4
  %19 = alloca i32, align 4
  %20 = alloca i32, align 4
  %21 = alloca %"struct.std::pair", align 4
  %22 = alloca i32, align 4
  store i32 %0, ptr %9, align 4
  store i32 %1, ptr %10, align 4
  store i32 %2, ptr %11, align 4
  store ptr %3, ptr %12, align 8
  store ptr %4, ptr %13, align 8
  store i32 %5, ptr %14, align 4
  %23 = zext i1 %6 to i8
  store i8 %23, ptr %15, align 1
  %24 = load i32, ptr %9, align 4
  %25 = icmp ne i32 %24, 0
  br i1 %25, label %27, label %26

26:                                               ; preds = %7
  call void @_ZNSt4pairIjjEC2IjjTnNSt9enable_ifIXsr6__and_ISt37__is_implicitly_default_constructibleIT_ES3_IT0_EEE5valueEbE4typeELb1EEEv(ptr noundef nonnull align 4 dereferenceable(8) %8)
  br label %94

27:                                               ; preds = %7
  %28 = load i32, ptr %10, align 4
  %29 = load i8, ptr %15, align 1
  %30 = trunc i8 %29 to i1
  %31 = zext i1 %30 to i32
  %32 = add i32 %28, %31
  %33 = load i32, ptr %9, align 4
  %34 = udiv i32 %32, %33
  store i32 %34, ptr %16, align 4
  %35 = load i32, ptr %10, align 4
  %36 = load i8, ptr %15, align 1
  %37 = trunc i8 %36 to i1
  %38 = zext i1 %37 to i32
  %39 = add i32 %35, %38
  %40 = load i32, ptr %9, align 4
  %41 = urem i32 %39, %40
  store i32 %41, ptr %17, align 4
  store i32 0, ptr %18, align 4
  call void @_ZNSt4pairIjjEC2IRjiTnNSt9enable_ifIXaaclsr5_PCCPE22_MoveConstructiblePairIT_T0_EEclsr5_PCCPE30_ImplicitlyMoveConvertiblePairIS4_S5_EEEbE4typeELb1EEEOS4_OS5_(ptr noundef nonnull align 4 dereferenceable(8) %8, ptr noundef nonnull align 4 dereferenceable(4) %9, ptr noundef nonnull align 4 dereferenceable(4) %18)
  store i32 0, ptr %19, align 4
  store i32 0, ptr %20, align 4
  br label %42

42:                                               ; preds = %79, %27
  %43 = load i32, ptr %20, align 4
  %44 = load i32, ptr %9, align 4
  %45 = icmp ne i32 %43, %44
  br i1 %45, label %46, label %82

46:                                               ; preds = %42
  %47 = load i32, ptr %16, align 4
  %48 = load i32, ptr %20, align 4
  %49 = load i32, ptr %17, align 4
  %50 = icmp ult i32 %48, %49
  %51 = zext i1 %50 to i32
  %52 = add i32 %47, %51
  %53 = load ptr, ptr %13, align 8
  %54 = load i32, ptr %20, align 4
  %55 = zext i32 %54 to i64
  %56 = getelementptr inbounds i32, ptr %53, i64 %55
  store i32 %52, ptr %56, align 4
  %57 = load i32, ptr %19, align 4
  %58 = add i32 %57, %52
  store i32 %58, ptr %19, align 4
  %59 = getelementptr inbounds nuw %"struct.std::pair", ptr %8, i32 0, i32 0
  %60 = load i32, ptr %59, align 4
  %61 = load i32, ptr %9, align 4
  %62 = icmp eq i32 %60, %61
  br i1 %62, label %63, label %78

63:                                               ; preds = %46
  %64 = load i32, ptr %19, align 4
  %65 = load i32, ptr %14, align 4
  %66 = icmp ugt i32 %64, %65
  br i1 %66, label %67, label %78

67:                                               ; preds = %63
  %68 = load i32, ptr %14, align 4
  %69 = load i32, ptr %19, align 4
  %70 = load ptr, ptr %13, align 8
  %71 = load i32, ptr %20, align 4
  %72 = zext i32 %71 to i64
  %73 = getelementptr inbounds i32, ptr %70, i64 %72
  %74 = load i32, ptr %73, align 4
  %75 = sub i32 %69, %74
  %76 = sub i32 %68, %75
  store i32 %76, ptr %22, align 4
  call void @_ZNSt4pairIjjEC2IRjjTnNSt9enable_ifIXaaclsr5_PCCPE22_MoveConstructiblePairIT_T0_EEclsr5_PCCPE30_ImplicitlyMoveConvertiblePairIS4_S5_EEEbE4typeELb1EEEOS4_OS5_(ptr noundef nonnull align 4 dereferenceable(8) %21, ptr noundef nonnull align 4 dereferenceable(4) %20, ptr noundef nonnull align 4 dereferenceable(4) %22)
  %77 = call noundef nonnull align 4 dereferenceable(8) ptr @_ZNSt4pairIjjEaSEOS0_(ptr noundef nonnull align 4 dereferenceable(8) %8, ptr noundef nonnull align 4 dereferenceable(8) %21) #4
  br label %78

78:                                               ; preds = %67, %63, %46
  br label %79

79:                                               ; preds = %78
  %80 = load i32, ptr %20, align 4
  %81 = add i32 %80, 1
  store i32 %81, ptr %20, align 4
  br label %42, !llvm.loop !13

82:                                               ; preds = %42
  %83 = load i8, ptr %15, align 1
  %84 = trunc i8 %83 to i1
  br i1 %84, label %85, label %93

85:                                               ; preds = %82
  %86 = load ptr, ptr %13, align 8
  %87 = getelementptr inbounds nuw %"struct.std::pair", ptr %8, i32 0, i32 0
  %88 = load i32, ptr %87, align 4
  %89 = zext i32 %88 to i64
  %90 = getelementptr inbounds i32, ptr %86, i64 %89
  %91 = load i32, ptr %90, align 4
  %92 = add i32 %91, -1
  store i32 %92, ptr %90, align 4
  br label %93

93:                                               ; preds = %85, %82
  br label %94

94:                                               ; preds = %93, %26
  %95 = load i64, ptr %8, align 4
  ret i64 %95
}