; Function Attrs: mustprogress nofree norecurse nosync nounwind memory(argmem: readwrite) uwtable
define dso_local i64 @_ZN4llvm15IntervalMapImpl10distributeEjjjPKjPjjb(i32 noundef %0, i32 noundef %1, i32 noundef %2, ptr nocapture noundef readnone %3, ptr nocapture noundef %4, i32 noundef %5, i1 noundef zeroext %6) local_unnamed_addr #4 {
  %.not = icmp eq i32 %0, 0
  br i1 %.not, label %31, label %8

8:                                                ; preds = %7
  %9 = zext i1 %6 to i32
  %10 = add i32 %1, %9
  %11 = udiv i32 %10, %0
  %12 = urem i32 %10, %0
  %13 = zext i32 %0 to i64
  %14 = zext i32 %12 to i64
  br label %15

15:                                               ; preds = %8, %15
  %indvars.iv = phi i64 [ 0, %8 ], [ %indvars.iv.next, %15 ]
  %.032 = phi i32 [ 0, %8 ], [ %20, %15 ]
  %.sroa.6.130 = phi i32 [ 0, %8 ], [ %.sroa.6.2, %15 ]
  %.sroa.026.129 = phi i32 [ %0, %8 ], [ %.sroa.026.2, %15 ]
  %16 = icmp ult i64 %indvars.iv, %14
  %17 = zext i1 %16 to i32
  %18 = add i32 %11, %17
  %19 = getelementptr inbounds i32, ptr %4, i64 %indvars.iv
  store i32 %18, ptr %19, align 4
  %20 = add i32 %18, %.032
  %21 = icmp eq i32 %.sroa.026.129, %0
  %22 = icmp ugt i32 %20, %5
  %or.cond = select i1 %21, i1 %22, i1 false
  %23 = sub i32 %5, %.032
  %24 = trunc nuw i64 %indvars.iv to i32
  %.sroa.026.2 = select i1 %or.cond, i32 %24, i32 %.sroa.026.129
  %.sroa.6.2 = select i1 %or.cond, i32 %23, i32 %.sroa.6.130
  %indvars.iv.next = add nuw nsw i64 %indvars.iv, 1
  %.not18 = icmp eq i64 %indvars.iv.next, %13
  br i1 %.not18, label %25, label %15, !llvm.loop !14

25:                                               ; preds = %15
  br i1 %6, label %26, label %31

26:                                               ; preds = %25
  %27 = zext i32 %.sroa.026.2 to i64
  %28 = getelementptr inbounds i32, ptr %4, i64 %27
  %29 = load i32, ptr %28, align 4
  %30 = add i32 %29, -1
  store i32 %30, ptr %28, align 4
  br label %31

31:                                               ; preds = %7, %25, %26
  %.sroa.026.0 = phi i32 [ %.sroa.026.2, %26 ], [ %.sroa.026.2, %25 ], [ 0, %7 ]
  %.sroa.6.0 = phi i32 [ %.sroa.6.2, %26 ], [ %.sroa.6.2, %25 ], [ 0, %7 ]
  %.sroa.6.0.insert.ext = zext i32 %.sroa.6.0 to i64
  %.sroa.6.0.insert.shift = shl nuw i64 %.sroa.6.0.insert.ext, 32
  %.sroa.026.0.insert.ext = zext i32 %.sroa.026.0 to i64
  %.sroa.026.0.insert.insert = or disjoint i64 %.sroa.6.0.insert.shift, %.sroa.026.0.insert.ext
  ret i64 %.sroa.026.0.insert.insert
}